target datalayout = "e-m:e-p270:32:32-p271:32:32-p272:64:64-i64:64-i128:128-f80:128-n8:16:32:64-S128"
target triple = "x86_64-pc-linux-gnu"

%"class.ozz::options::internal::Registrer" = type { %"class.ozz::options::TypedOption" }
%"class.ozz::options::TypedOption" = type { %"class.ozz::options::Option", ptr, ptr }
%"class.ozz::options::Option" = type { ptr, ptr, ptr, i8, i8, ptr }
%"class.ozz::log::Err" = type { %"class.ozz::log::Logger.base", [7 x i8] }
%"class.ozz::log::Logger.base" = type <{ ptr, i8 }>
%"class.ozz::log::Logger" = type <{ ptr, i8, [7 x i8] }>
%"class.std::locale" = type { ptr }
%"class.std::ios_base" = type { ptr, i64, i64, i32, i32, i32, ptr, %"struct.std::ios_base::_Words", [8 x %"struct.std::ios_base::_Words"], i32, ptr, %"class.std::locale" }
%"struct.std::ios_base::_Words" = type { ptr, i64 }

@_ZL14OPTIONS_config = internal global %"class.ozz::options::internal::Registrer" zeroinitializer, align 8
@_ZL19OPTIONS_config_file = internal global %"class.ozz::options::internal::Registrer" zeroinitializer, align 8
@.str.7 = private unnamed_addr constant [50 x i8] c"--config and --config_file are exclusive options.\00", align 1

; Function Attrs: inlinehint mustprogress nounwind uwtable
define linkonce_odr dso_local noundef i32 @_ZStorSt12_Ios_IostateS_(i32 noundef %0, i32 noundef %1) #9 comdat {
  %3 = alloca i32, align 4
  %4 = alloca i32, align 4
  store i32 %0, ptr %3, align 4, !tbaa !166
  store i32 %1, ptr %4, align 4, !tbaa !166
  %5 = load i32, ptr %3, align 4, !tbaa !166
  %6 = load i32, ptr %4, align 4, !tbaa !166
  %7 = or i32 %5, %6
  ret i32 %7
}

; Function Attrs: mustprogress nounwind uwtable
define available_externally noundef i32 @_ZNKSt9basic_iosIcSt11char_traitsIcEE7rdstateEv(ptr noundef nonnull align 8 dereferenceable(264) %0) #6 align 2 {
  %2 = alloca ptr, align 8
  store ptr %0, ptr %2, align 8, !tbaa !110
  %3 = load ptr, ptr %2, align 8
  %4 = getelementptr inbounds nuw %"class.std::ios_base", ptr %3, i32 0, i32 5
  %5 = load i32, ptr %4, align 8, !tbaa !167
  ret i32 %5
}

; Function Attrs: mustprogress nounwind uwtable
define linkonce_odr dso_local noundef i64 @_ZNSt11char_traitsIcE6lengthEPKc(ptr noundef %0) #6 comdat align 2 {
  %2 = alloca ptr, align 8
  store ptr %0, ptr %2, align 8, !tbaa !11
  %3 = load ptr, ptr %2, align 8, !tbaa !11
  %4 = call i64 @strlen(ptr noundef %3) #3
  ret i64 %4
}

; Function Attrs: mustprogress uwtable
define available_externally void @_ZNSt9basic_iosIcSt11char_traitsIcEE8setstateESt12_Ios_Iostate(ptr noundef nonnull align 8 dereferenceable(264) %0, i32 noundef %1) #4 align 2 {
  %3 = alloca ptr, align 8
  %4 = alloca i32, align 4
  store ptr %0, ptr %3, align 8, !tbaa !110
  store i32 %1, ptr %4, align 4, !tbaa !166
  %5 = load ptr, ptr %3, align 8
  %6 = call noundef i32 @_ZNKSt9basic_iosIcSt11char_traitsIcEE7rdstateEv(ptr noundef nonnull align 8 dereferenceable(264) %5)
  %7 = load i32, ptr %4, align 4, !tbaa !166
  %8 = call noundef i32 @_ZStorSt12_Ios_IostateS_(i32 noundef %6, i32 noundef %7)
  call void @_ZNSt9basic_iosIcSt11char_traitsIcEE5clearESt12_Ios_Iostate(ptr noundef nonnull align 8 dereferenceable(264) %5, i32 noundef %8)
  ret void
}

; Function Attrs: inlinehint mustprogress uwtable
define available_externally noundef nonnull align 8 dereferenceable(8) ptr @_ZStlsISt11char_traitsIcEERSt13basic_ostreamIcT_ES5_PKc(ptr noundef nonnull align 8 dereferenceable(8) %0, ptr noundef %1) #7 {
  %3 = alloca ptr, align 8
  %4 = alloca ptr, align 8
  store ptr %0, ptr %3, align 8, !tbaa !25
  store ptr %1, ptr %4, align 8, !tbaa !11
  %5 = load ptr, ptr %4, align 8, !tbaa !11
  %6 = icmp ne ptr %5, null
  br i1 %6, label %13, label %7

7:                                                ; preds = %2
  %8 = load ptr, ptr %3, align 8, !tbaa !25
  %9 = load ptr, ptr %8, align 8, !tbaa !27
  %10 = getelementptr i8, ptr %9, i64 -24
  %11 = load i64, ptr %10, align 8
  %12 = getelementptr inbounds i8, ptr %8, i64 %11
  call void @_ZNSt9basic_iosIcSt11char_traitsIcEE8setstateESt12_Ios_Iostate(ptr noundef nonnull align 8 dereferenceable(264) %12, i32 noundef 1)
  br label %19

13:                                               ; preds = %2
  %14 = load ptr, ptr %3, align 8, !tbaa !25
  %15 = load ptr, ptr %4, align 8, !tbaa !11
  %16 = load ptr, ptr %4, align 8, !tbaa !11
  %17 = call noundef i64 @_ZNSt11char_traitsIcE6lengthEPKc(ptr noundef %16)
  %18 = call noundef nonnull align 8 dereferenceable(8) ptr @_ZSt16__ostream_insertIcSt11char_traitsIcEERSt13basic_ostreamIT_T0_ES6_PKS3_l(ptr noundef nonnull align 8 dereferenceable(8) %14, ptr noundef %15, i64 noundef %17)
  br label %19

19:                                               ; preds = %13, %7
  %20 = load ptr, ptr %3, align 8, !tbaa !25
  ret ptr %20
}

; Function Attrs: mustprogress uwtable
define available_externally noundef nonnull align 8 dereferenceable(8) ptr @_ZNSolsEPFRSoS_E(ptr noundef nonnull align 8 dereferenceable(8) %0, ptr noundef %1) #4 align 2 {
  %3 = alloca ptr, align 8
  %4 = alloca ptr, align 8
  store ptr %0, ptr %3, align 8, !tbaa !25
  store ptr %1, ptr %4, align 8, !tbaa !26
  %5 = load ptr, ptr %3, align 8
  %6 = load ptr, ptr %4, align 8, !tbaa !26
  %7 = call noundef nonnull align 8 dereferenceable(8) ptr %6(ptr noundef nonnull align 8 dereferenceable(8) %5)
  ret ptr %7
}

; Function Attrs: mustprogress uwtable
define linkonce_odr dso_local noundef nonnull align 8 dereferenceable(8) ptr @_ZN3ozz3log6LoggerlsIA50_cEERSoRKT_(ptr noundef nonnull align 8 dereferenceable(9) %0, ptr noundef nonnull align 1 dereferenceable(50) %1) #4 comdat align 2 {
  %3 = alloca ptr, align 8
  %4 = alloca ptr, align 8
  store ptr %0, ptr %3, align 8, !tbaa !20
  store ptr %1, ptr %4, align 8, !tbaa !11
  %5 = load ptr, ptr %3, align 8
  %6 = getelementptr inbounds nuw %"class.ozz::log::Logger", ptr %5, i32 0, i32 0
  %7 = load ptr, ptr %6, align 8, !tbaa !22
  %8 = load ptr, ptr %4, align 8, !tbaa !11
  %9 = getelementptr inbounds [50 x i8], ptr %8, i64 0, i64 0
  %10 = call noundef nonnull align 8 dereferenceable(8) ptr @_ZStlsISt11char_traitsIcEERSt13basic_ostreamIcT_ES5_PKc(ptr noundef nonnull align 8 dereferenceable(8) %7, ptr noundef %9)
  ret ptr %10
}

; Function Attrs: mustprogress nounwind uwtable
define linkonce_odr dso_local noundef nonnull align 8 dereferenceable(8) ptr @_ZNK3ozz7options11TypedOptionIPKcE5valueEv(ptr noundef nonnull align 8 dereferenceable(56) %0) #6 comdat align 2 {
  %2 = alloca ptr, align 8
  store ptr %0, ptr %2, align 8, !tbaa !18
  %3 = load ptr, ptr %2, align 8
  %4 = getelementptr inbounds nuw %"class.ozz::options::TypedOption", ptr %3, i32 0, i32 2
  ret ptr %4
}

; Function Attrs: mustprogress uwtable
define dso_local noundef zeroext i1 @_Z29ValidateExclusiveConfigOptionRKN3ozz7options6OptionEi(ptr noundef nonnull align 8 dereferenceable(40) %0, i32 noundef %1) #4 personality ptr @__gxx_personality_v0 {
  %3 = alloca ptr, align 8
  %4 = alloca i32, align 4
  %5 = alloca i8, align 1
  %6 = alloca %"class.ozz::log::Err", align 8
  %7 = alloca ptr, align 8
  %8 = alloca i32, align 4
  store ptr %0, ptr %3, align 8, !tbaa !4
  store i32 %1, ptr %4, align 4, !tbaa !9
  call void @llvm.lifetime.start.p0(i64 1, ptr %5) #3
  %9 = call noundef nonnull align 8 dereferenceable(8) ptr @_ZNK3ozz7options11TypedOptionIPKcE5valueEv(ptr noundef nonnull align 8 dereferenceable(56) @_ZL19OPTIONS_config_file)
  %10 = load ptr, ptr %9, align 8, !tbaa !11
  %11 = getelementptr inbounds i8, ptr %10, i64 0
  %12 = load i8, ptr %11, align 1, !tbaa !13
  %13 = sext i8 %12 to i32
  %14 = icmp ne i32 %13, 0
  br i1 %14, label %15, label %22

15:                                               ; preds = %2
  %16 = call noundef nonnull align 8 dereferenceable(8) ptr @_ZNK3ozz7options11TypedOptionIPKcE5valueEv(ptr noundef nonnull align 8 dereferenceable(56) @_ZL14OPTIONS_config)
  %17 = load ptr, ptr %16, align 8, !tbaa !11
  %18 = getelementptr inbounds i8, ptr %17, i64 0
  %19 = load i8, ptr %18, align 1, !tbaa !13
  %20 = sext i8 %19 to i32
  %21 = icmp ne i32 %20, 0
  br label %22

22:                                               ; preds = %15, %2
  %23 = phi i1 [ false, %2 ], [ %21, %15 ]
  %24 = zext i1 %23 to i8
  store i8 %24, ptr %5, align 1, !tbaa !14
  %25 = load i8, ptr %5, align 1, !tbaa !14, !range !16, !noundef !17
  %26 = trunc i8 %25 to i1
  br i1 %26, label %27, label %36

27:                                               ; preds = %22
  call void @llvm.lifetime.start.p0(i64 16, ptr %6) #3
  call void @_ZN3ozz3log3ErrC1Ev(ptr noundef nonnull align 8 dereferenceable(9) %6)
  %28 = invoke noundef nonnull align 8 dereferenceable(8) ptr @_ZN3ozz3log6LoggerlsIA50_cEERSoRKT_(ptr noundef nonnull align 8 dereferenceable(9) %6, ptr noundef nonnull align 1 dereferenceable(50) @.str.7)
          to label %29 unwind label %32

29:                                               ; preds = %27
  %30 = invoke noundef nonnull align 8 dereferenceable(8) ptr @_ZNSolsEPFRSoS_E(ptr noundef nonnull align 8 dereferenceable(8) %28, ptr noundef @_ZSt4endlIcSt11char_traitsIcEERSt13basic_ostreamIT_T0_ES6_)
          to label %31 unwind label %32

31:                                               ; preds = %29
  call void @_ZN3ozz3log6LoggerD2Ev(ptr noundef nonnull align 8 dereferenceable(9) %6) #3
  call void @llvm.lifetime.end.p0(i64 16, ptr %6) #3
  br label %36

32:                                               ; preds = %29, %27
  %33 = landingpad { ptr, i32 }
          cleanup
  %34 = extractvalue { ptr, i32 } %33, 0
  store ptr %34, ptr %7, align 8
  %35 = extractvalue { ptr, i32 } %33, 1
  store i32 %35, ptr %8, align 4
  call void @_ZN3ozz3log6LoggerD2Ev(ptr noundef nonnull align 8 dereferenceable(9) %6) #3
  call void @llvm.lifetime.end.p0(i64 16, ptr %6) #3
  call void @llvm.lifetime.end.p0(i64 1, ptr %5) #3
  br label %40

36:                                               ; preds = %31, %22
  %37 = load i8, ptr %5, align 1, !tbaa !14, !range !16, !noundef !17
  %38 = trunc i8 %37 to i1
  %39 = xor i1 %38, true
  call void @llvm.lifetime.end.p0(i64 1, ptr %5) #3
  ret i1 %39

40:                                               ; preds = %32
  %41 = load ptr, ptr %7, align 8
  %42 = load i32, ptr %8, align 4
  %43 = insertvalue { ptr, i32 } poison, ptr %41, 0
  %44 = insertvalue { ptr, i32 } %43, i32 %42, 1
  resume { ptr, i32 } %44
}