; Function Attrs: mustprogress uwtable
define dso_local noundef zeroext i1 @_Z29ValidateExclusiveConfigOptionRKN3ozz7options6OptionEi(ptr nonnull readnone align 8 captures(none) %0, i32 %1) #3 personality ptr @__gxx_personality_v0 {
  %3 = alloca %"class.ozz::log::Err", align 8
  %4 = load ptr, ptr getelementptr inbounds nuw (i8, ptr @_ZL19OPTIONS_config_file, i64 48), align 8, !tbaa !4
  %5 = load i8, ptr %4, align 1, !tbaa !9
  %.not = icmp eq i8 %5, 0
  br i1 %.not, label %.thread, label %6

6:                                                ; preds = %2
  %7 = load ptr, ptr getelementptr inbounds nuw (i8, ptr @_ZL14OPTIONS_config, i64 48), align 8, !tbaa !4
  %8 = load i8, ptr %7, align 1, !tbaa !9
  %.not7 = icmp eq i8 %8, 0
  br i1 %.not7, label %.thread, label %9

9:                                                ; preds = %6
  call void @llvm.lifetime.start.p0(i64 16, ptr nonnull %3) #20
  call void @_ZN3ozz3log3ErrC1Ev(ptr noundef nonnull align 8 dereferenceable(9) %3)
  %10 = load ptr, ptr %3, align 8, !tbaa !10
  %11 = invoke noundef nonnull align 8 dereferenceable(8) ptr @_ZSt16__ostream_insertIcSt11char_traitsIcEERSt13basic_ostreamIT_T0_ES6_PKS3_l(ptr noundef nonnull align 8 dereferenceable(8) %10, ptr noundef nonnull @.str.7, i64 noundef 49)
          to label %_ZN3ozz3log6LoggerlsIA50_cEERSoRKT_.exit unwind label %31

_ZN3ozz3log6LoggerlsIA50_cEERSoRKT_.exit:         ; preds = %9
  %12 = load ptr, ptr %10, align 8, !tbaa !14
  %13 = getelementptr i8, ptr %12, i64 -24
  %14 = load i64, ptr %13, align 8
  %15 = getelementptr inbounds i8, ptr %10, i64 %14
  %16 = getelementptr inbounds nuw i8, ptr %15, i64 240
  %17 = load ptr, ptr %16, align 8, !tbaa !16
  %.not.i.i.i = icmp eq ptr %17, null
  br i1 %.not.i.i.i, label %18, label %_ZSt13__check_facetISt5ctypeIcEERKT_PS3_.exit.i.i

18:                                               ; preds = %_ZN3ozz3log6LoggerlsIA50_cEERSoRKT_.exit
  invoke void @_ZSt16__throw_bad_castv() #21
          to label %.noexc unwind label %31

.noexc:                                           ; preds = %18
  unreachable

_ZSt13__check_facetISt5ctypeIcEERKT_PS3_.exit.i.i: ; preds = %_ZN3ozz3log6LoggerlsIA50_cEERSoRKT_.exit
  %19 = getelementptr inbounds nuw i8, ptr %17, i64 56
  %20 = load i8, ptr %19, align 8, !tbaa !32
  %.not.i1.i.i = icmp eq i8 %20, 0
  br i1 %.not.i1.i.i, label %24, label %21

21:                                               ; preds = %_ZSt13__check_facetISt5ctypeIcEERKT_PS3_.exit.i.i
  %22 = getelementptr inbounds nuw i8, ptr %17, i64 67
  %23 = load i8, ptr %22, align 1, !tbaa !9
  br label %_ZNKSt9basic_iosIcSt11char_traitsIcEE5widenEc.exit.i

24:                                               ; preds = %_ZSt13__check_facetISt5ctypeIcEERKT_PS3_.exit.i.i
  invoke void @_ZNKSt5ctypeIcE13_M_widen_initEv(ptr noundef nonnull align 8 dereferenceable(570) %17)
          to label %.noexc3 unwind label %31

.noexc3:                                          ; preds = %24
  %25 = load ptr, ptr %17, align 8, !tbaa !14
  %26 = getelementptr inbounds nuw i8, ptr %25, i64 48
  %27 = load ptr, ptr %26, align 8
  %28 = invoke noundef signext i8 %27(ptr noundef nonnull align 8 dereferenceable(570) %17, i8 noundef signext 10)
          to label %_ZNKSt9basic_iosIcSt11char_traitsIcEE5widenEc.exit.i unwind label %31

_ZNKSt9basic_iosIcSt11char_traitsIcEE5widenEc.exit.i: ; preds = %.noexc3, %21
  %.0.i.i.i = phi i8 [ %23, %21 ], [ %28, %.noexc3 ]
  %29 = invoke noundef nonnull align 8 dereferenceable(8) ptr @_ZNSo3putEc(ptr noundef nonnull align 8 dereferenceable(8) %10, i8 noundef signext %.0.i.i.i)
          to label %.noexc5 unwind label %31

.noexc5:                                          ; preds = %_ZNKSt9basic_iosIcSt11char_traitsIcEE5widenEc.exit.i
  %30 = invoke noundef nonnull align 8 dereferenceable(8) ptr @_ZNSo5flushEv(ptr noundef nonnull align 8 dereferenceable(8) %29)
          to label %_ZNSolsEPFRSoS_E.exit unwind label %31

_ZNSolsEPFRSoS_E.exit:                            ; preds = %.noexc5
  call void @_ZN3ozz3log6LoggerD2Ev(ptr noundef nonnull align 8 dereferenceable(9) %3) #20
  call void @llvm.lifetime.end.p0(i64 16, ptr nonnull %3) #20
  br label %.thread

31:                                               ; preds = %.noexc5, %_ZNKSt9basic_iosIcSt11char_traitsIcEE5widenEc.exit.i, %.noexc3, %24, %18, %9
  %32 = landingpad { ptr, i32 }
          cleanup
  call void @_ZN3ozz3log6LoggerD2Ev(ptr noundef nonnull align 8 dereferenceable(9) %3) #20
  call void @llvm.lifetime.end.p0(i64 16, ptr nonnull %3) #20
  resume { ptr, i32 } %32

.thread:                                          ; preds = %2, %_ZNSolsEPFRSoS_E.exit, %6
  %33 = phi i1 [ false, %_ZNSolsEPFRSoS_E.exit ], [ true, %6 ], [ true, %2 ]
  ret i1 %33
}